target datalayout = "e-m:e-p270:32:32-p271:32:32-p272:64:64-i64:64-i128:128-f80:128-n8:16:32:64-S128"
target triple = "x86_64-pc-linux-gnu"

%"class.std::basic_ios" = type { %"class.std::ios_base", ptr, i8, i8, ptr, ptr, ptr, ptr }
%"class.std::ios_base" = type { ptr, i64, i64, i32, i32, i32, ptr, %"struct.std::ios_base::_Words", [8 x %"struct.std::ios_base::_Words"], i32, ptr, %"class.std::locale" }
%"struct.std::ios_base::_Words" = type { ptr, i64 }
%"class.std::locale" = type { ptr }
%"struct.std::_Rb_tree_header" = type { %"struct.std::_Rb_tree_node_base", i64 }
%"struct.std::_Rb_tree_node_base" = type { i32, ptr, ptr, ptr }
%"class.std::set" = type { %"class.std::_Rb_tree" }
%"class.std::_Rb_tree" = type { %"struct.std::_Rb_tree<std::__cxx11::basic_string<char>, std::__cxx11::basic_string<char>, std::_Identity<std::__cxx11::basic_string<char>>, std::less<std::__cxx11::basic_string<char>>>::_Rb_tree_impl" }
%"struct.std::_Rb_tree<std::__cxx11::basic_string<char>, std::__cxx11::basic_string<char>, std::_Identity<std::__cxx11::basic_string<char>>, std::less<std::__cxx11::basic_string<char>>>::_Rb_tree_impl" = type { [8 x i8], %"struct.std::_Rb_tree_header" }
%"class.std::__cxx11::basic_string" = type { %"struct.std::__cxx11::basic_string<char>::_Alloc_hider", i64, %union.anon }
%"struct.std::__cxx11::basic_string<char>::_Alloc_hider" = type { ptr }
%union.anon = type { i64, [8 x i8] }
%class.V3ErrorGuarded = type { i8, i32, %class.V3ErrorCode, i8, %"class.std::set", ptr, i8, i32, i32, %"struct.std::array", i8, %"struct.std::array", i32, i32, i8, %"class.std::__cxx11::basic_ostringstream", %class.V3MutexImp }
%class.V3ErrorCode = type { i8 }
%"struct.std::array" = type { [121 x i8] }
%"class.std::__cxx11::basic_ostringstream" = type { %"class.std::basic_ostream.base", %"class.std::__cxx11::basic_stringbuf", %"class.std::basic_ios" }
%"class.std::basic_ostream.base" = type { ptr }
%"class.std::__cxx11::basic_stringbuf" = type { %"class.std::basic_streambuf", i32, %"class.std::__cxx11::basic_string" }
%"class.std::basic_streambuf" = type { ptr, ptr, ptr, ptr, ptr, ptr, ptr, %"class.std::locale" }
%class.V3MutexImp = type { %"class.std::recursive_mutex" }
%"class.std::recursive_mutex" = type { %"class.std::__recursive_mutex_base" }
%"class.std::__recursive_mutex_base" = type { %union.pthread_mutex_t }
%union.pthread_mutex_t = type { %struct.__pthread_mutex_s }
%struct.__pthread_mutex_s = type { i32, i32, i32, i32, i32, i16, i16, %struct.__pthread_internal_list }
%struct.__pthread_internal_list = type { ptr, ptr }
%class.V3MutexConfig = type { i8, i8 }

@__dso_handle = external hidden global i8
@_ZZN7V3Error1sEvE3s_s = linkonce_odr dso_local global %class.V3ErrorGuarded zeroinitializer, comdat, align 8
@_ZGVZN7V3Error1sEvE3s_s = linkonce_odr dso_local global i64 0, comdat, align 8
@_ZZN13V3MutexConfig1sEvE1s = linkonce_odr dso_local global %class.V3MutexConfig zeroinitializer, comdat, align 1

; Function Attrs: inlinehint mustprogress nounwind uwtable
define internal noundef i32 @_ZL18__gthread_active_pv() #11 {
  ret i32 1
}

; Function Attrs: inlinehint mustprogress nounwind uwtable
define internal noundef i32 @_ZL22__gthread_mutex_unlockP15pthread_mutex_t(ptr noundef %0) #11 {
  %2 = alloca i32, align 4
  %3 = alloca ptr, align 8
  store ptr %0, ptr %3, align 8, !tbaa !63
  %4 = call noundef i32 @_ZL18__gthread_active_pv()
  %5 = icmp ne i32 %4, 0
  br i1 %5, label %6, label %9

6:                                                ; preds = %1
  %7 = load ptr, ptr %3, align 8, !tbaa !63
  %8 = call i32 @pthread_mutex_unlock(ptr noundef %7) #3
  store i32 %8, ptr %2, align 4
  br label %10

9:                                                ; preds = %1
  store i32 0, ptr %2, align 4
  br label %10

10:                                               ; preds = %9, %6
  %11 = load i32, ptr %2, align 4
  ret i32 %11
}

; Function Attrs: inlinehint mustprogress uwtable
define internal noundef i32 @_ZL32__gthread_recursive_mutex_unlockP15pthread_mutex_t(ptr noundef %0) #10 {
  %2 = alloca ptr, align 8
  store ptr %0, ptr %2, align 8, !tbaa !63
  %3 = load ptr, ptr %2, align 8, !tbaa !63
  %4 = call noundef i32 @_ZL22__gthread_mutex_unlockP15pthread_mutex_t(ptr noundef %3)
  ret i32 %4
}

; Function Attrs: mustprogress uwtable
define linkonce_odr dso_local void @_ZNSt15recursive_mutex6unlockEv(ptr noundef nonnull align 8 dereferenceable(40) %0) #4 comdat align 2 {
  %2 = alloca ptr, align 8
  store ptr %0, ptr %2, align 8, !tbaa !195
  %3 = load ptr, ptr %2, align 8
  %4 = getelementptr inbounds nuw %"class.std::__recursive_mutex_base", ptr %3, i32 0, i32 0
  %5 = call noundef i32 @_ZL32__gthread_recursive_mutex_unlockP15pthread_mutex_t(ptr noundef %4)
  ret void
}

; Function Attrs: mustprogress nounwind uwtable
define linkonce_odr dso_local noundef zeroext i1 @_ZN13V3MutexConfig6enableEv(ptr noundef nonnull align 1 dereferenceable(2) %0) #6 comdat align 2 {
  %2 = alloca ptr, align 8
  store ptr %0, ptr %2, align 8, !tbaa !292
  %3 = load ptr, ptr %2, align 8
  %4 = getelementptr inbounds nuw %class.V3MutexConfig, ptr %3, i32 0, i32 0
  %5 = load i8, ptr %4, align 1, !tbaa !294, !range !24, !noundef !25
  %6 = trunc i8 %5 to i1
  ret i1 %6
}

; Function Attrs: mustprogress nounwind uwtable
define linkonce_odr dso_local noundef nonnull align 1 dereferenceable(2) ptr @_ZN13V3MutexConfig1sEv() #6 comdat align 2 {
  ret ptr @_ZZN13V3MutexConfig1sEvE1s
}

; Function Attrs: mustprogress uwtable
define linkonce_odr dso_local void @_ZN10V3MutexImpISt15recursive_mutexE6unlockEv(ptr noundef nonnull align 8 dereferenceable(40) %0) #4 comdat align 2 {
  %2 = alloca ptr, align 8
  store ptr %0, ptr %2, align 8, !tbaa !142
  %3 = load ptr, ptr %2, align 8
  %4 = call noundef nonnull align 1 dereferenceable(2) ptr @_ZN13V3MutexConfig1sEv()
  %5 = call noundef zeroext i1 @_ZN13V3MutexConfig6enableEv(ptr noundef nonnull align 1 dereferenceable(2) %4)
  br i1 %5, label %6, label %8

6:                                                ; preds = %1
  %7 = getelementptr inbounds nuw %class.V3MutexImp, ptr %3, i32 0, i32 0
  call void @_ZNSt15recursive_mutex6unlockEv(ptr noundef nonnull align 8 dereferenceable(40) %7)
  br label %8

8:                                                ; preds = %6, %1
  ret void
}

; Function Attrs: mustprogress uwtable
define linkonce_odr dso_local noundef nonnull align 8 dereferenceable(760) ptr @_ZN7V3Error1sEv() #4 comdat align 2 personality ptr @__gxx_personality_v0 {
  %1 = alloca ptr, align 8
  %2 = alloca i32, align 4
  %3 = load atomic i8, ptr @_ZGVZN7V3Error1sEvE3s_s acquire, align 8
  %4 = icmp eq i8 %3, 0
  br i1 %4, label %5, label %11, !prof !141

5:                                                ; preds = %0
  %6 = call i32 @__cxa_guard_acquire(ptr @_ZGVZN7V3Error1sEvE3s_s) #3
  %7 = icmp ne i32 %6, 0
  br i1 %7, label %8, label %11

8:                                                ; preds = %5
  invoke void @_ZN14V3ErrorGuardedC2Ev(ptr noundef nonnull align 8 dereferenceable(760) @_ZZN7V3Error1sEvE3s_s)
          to label %9 unwind label %12

9:                                                ; preds = %8
  %10 = call i32 @__cxa_atexit(ptr @_ZN14V3ErrorGuardedD2Ev, ptr @_ZZN7V3Error1sEvE3s_s, ptr @__dso_handle) #3
  call void @__cxa_guard_release(ptr @_ZGVZN7V3Error1sEvE3s_s) #3
  br label %11

11:                                               ; preds = %9, %5, %0
  ret ptr @_ZZN7V3Error1sEvE3s_s

12:                                               ; preds = %8
  %13 = landingpad { ptr, i32 }
          cleanup
  %14 = extractvalue { ptr, i32 } %13, 0
  store ptr %14, ptr %1, align 8
  %15 = extractvalue { ptr, i32 } %13, 1
  store i32 %15, ptr %2, align 4
  call void @__cxa_guard_abort(ptr @_ZGVZN7V3Error1sEvE3s_s) #3
  br label %16

16:                                               ; preds = %12
  %17 = load ptr, ptr %1, align 8
  %18 = load i32, ptr %2, align 4
  %19 = insertvalue { ptr, i32 } poison, ptr %17, 0
  %20 = insertvalue { ptr, i32 } %19, i32 %18, 1
  resume { ptr, i32 } %20
}

; Function Attrs: mustprogress uwtable
define dso_local void @_ZN7V3Error10v3errorEndERNSt7__cxx1119basic_ostringstreamIcSt11char_traitsIcESaIcEEERKNS0_12basic_stringIcS3_S4_EE(ptr noundef nonnull align 8 dereferenceable(112) %0, ptr noundef nonnull align 8 dereferenceable(32) %1) #4 align 2 {
  %3 = alloca ptr, align 8
  %4 = alloca ptr, align 8
  store ptr %0, ptr %3, align 8, !tbaa !98
  store ptr %1, ptr %4, align 8, !tbaa !55
  %5 = call noundef nonnull align 8 dereferenceable(760) ptr @_ZN7V3Error1sEv()
  %6 = load ptr, ptr %3, align 8, !tbaa !98
  %7 = load ptr, ptr %4, align 8, !tbaa !55
  call void @_ZN14V3ErrorGuarded10v3errorEndERNSt7__cxx1119basic_ostringstreamIcSt11char_traitsIcESaIcEEERKNS0_12basic_stringIcS3_S4_EE(ptr noundef nonnull align 8 dereferenceable(760) %5, ptr noundef nonnull align 8 dereferenceable(112) %6, ptr noundef nonnull align 8 dereferenceable(32) %7)
  %8 = call noundef nonnull align 8 dereferenceable(760) ptr @_ZN7V3Error1sEv()
  %9 = getelementptr inbounds nuw %class.V3ErrorGuarded, ptr %8, i32 0, i32 16
  call void @_ZN10V3MutexImpISt15recursive_mutexE6unlockEv(ptr noundef nonnull align 8 dereferenceable(40) %9)
  ret void
}