; Function Attrs: mustprogress uwtable
define dso_local void @_ZN7V3Error10v3errorEndERNSt7__cxx1119basic_ostringstreamIcSt11char_traitsIcESaIcEEERKNS0_12basic_stringIcS3_S4_EE(ptr noundef nonnull align 8 dereferenceable(112) %0, ptr noundef nonnull readonly align 8 captures(none) dereferenceable(32) %1) #8 align 2 personality ptr @__gxx_personality_v0 {
  %3 = load atomic i8, ptr @_ZGVZN7V3Error1sEvE3s_s acquire, align 8
  %4 = icmp eq i8 %3, 0
  br i1 %4, label %5, label %_ZN7V3Error1sEv.exit, !prof !50

5:                                                ; preds = %2
  %6 = tail call i32 @__cxa_guard_acquire(ptr nonnull @_ZGVZN7V3Error1sEvE3s_s) #30
  %.not.i = icmp eq i32 %6, 0
  br i1 %.not.i, label %_ZN7V3Error1sEv.exit, label %7

7:                                                ; preds = %5
  invoke void @_ZN14V3ErrorGuardedC2Ev(ptr noundef nonnull align 8 dereferenceable(760) @_ZZN7V3Error1sEvE3s_s)
          to label %8 unwind label %10

8:                                                ; preds = %7
  %9 = tail call i32 @__cxa_atexit(ptr nonnull @_ZN14V3ErrorGuardedD2Ev, ptr nonnull @_ZZN7V3Error1sEvE3s_s, ptr nonnull @__dso_handle) #30
  tail call void @__cxa_guard_release(ptr nonnull @_ZGVZN7V3Error1sEvE3s_s) #30
  br label %_ZN7V3Error1sEv.exit

common.resume:                                    ; preds = %19, %10
  %common.resume.op = phi { ptr, i32 } [ %11, %10 ], [ %20, %19 ]
  tail call void @__cxa_guard_abort(ptr nonnull @_ZGVZN7V3Error1sEvE3s_s) #30
  resume { ptr, i32 } %common.resume.op

10:                                               ; preds = %7
  %11 = landingpad { ptr, i32 }
          cleanup
  br label %common.resume

_ZN7V3Error1sEv.exit:                             ; preds = %2, %5, %8
  tail call void @_ZN14V3ErrorGuarded10v3errorEndERNSt7__cxx1119basic_ostringstreamIcSt11char_traitsIcESaIcEEERKNS0_12basic_stringIcS3_S4_EE(ptr noundef nonnull align 8 dereferenceable(760) @_ZZN7V3Error1sEvE3s_s, ptr noundef nonnull align 8 dereferenceable(112) %0, ptr noundef nonnull align 8 dereferenceable(32) %1)
  %12 = load atomic i8, ptr @_ZGVZN7V3Error1sEvE3s_s acquire, align 8
  %13 = icmp eq i8 %12, 0
  br i1 %13, label %14, label %_ZN7V3Error1sEv.exit3, !prof !50

14:                                               ; preds = %_ZN7V3Error1sEv.exit
  %15 = tail call i32 @__cxa_guard_acquire(ptr nonnull @_ZGVZN7V3Error1sEvE3s_s) #30
  %.not.i2 = icmp eq i32 %15, 0
  br i1 %.not.i2, label %_ZN7V3Error1sEv.exit3, label %16

16:                                               ; preds = %14
  invoke void @_ZN14V3ErrorGuardedC2Ev(ptr noundef nonnull align 8 dereferenceable(760) @_ZZN7V3Error1sEvE3s_s)
          to label %17 unwind label %19

17:                                               ; preds = %16
  %18 = tail call i32 @__cxa_atexit(ptr nonnull @_ZN14V3ErrorGuardedD2Ev, ptr nonnull @_ZZN7V3Error1sEvE3s_s, ptr nonnull @__dso_handle) #30
  tail call void @__cxa_guard_release(ptr nonnull @_ZGVZN7V3Error1sEvE3s_s) #30
  br label %_ZN7V3Error1sEv.exit3

19:                                               ; preds = %16
  %20 = landingpad { ptr, i32 }
          cleanup
  br label %common.resume

_ZN7V3Error1sEv.exit3:                            ; preds = %_ZN7V3Error1sEv.exit, %14, %17
  %21 = load i8, ptr @_ZZN13V3MutexConfig1sEvE1s, align 1, !tbaa !169, !range !16, !noundef !17
  %22 = trunc nuw i8 %21 to i1
  br i1 %22, label %23, label %_ZN10V3MutexImpISt15recursive_mutexE6unlockEv.exit

23:                                               ; preds = %_ZN7V3Error1sEv.exit3
  %24 = tail call noundef i32 @pthread_mutex_unlock(ptr noundef nonnull align 8 dereferenceable(40) getelementptr inbounds nuw (i8, ptr @_ZZN7V3Error1sEvE3s_s, i64 720)) #30
  br label %_ZN10V3MutexImpISt15recursive_mutexE6unlockEv.exit

_ZN10V3MutexImpISt15recursive_mutexE6unlockEv.exit: ; preds = %_ZN7V3Error1sEv.exit3, %23
  ret void
}